; Function Attrs: mustprogress nofree norecurse nosync nounwind willreturn memory(argmem: readwrite) uwtable
define range(i32 -501, 1) i32 @nghttp2_session_set_next_stream_id(ptr noundef captures(none) %0, i32 noundef %1) local_unnamed_addr #7 {
  %3 = icmp slt i32 %1, 1
  br i1 %3, label %16, label %4

4:                                                ; preds = %2
  %5 = getelementptr inbounds nuw i8, ptr %0, i64 2544
  %6 = load i32, ptr %5, align 8, !tbaa !45
  %7 = icmp ugt i32 %6, %1
  br i1 %7, label %16, label %8

8:                                                ; preds = %4
  %9 = getelementptr inbounds nuw i8, ptr %0, i64 2675
  %10 = load i8, ptr %9, align 1, !tbaa !37
  %.not = icmp eq i8 %10, 0
  %11 = and i32 %1, 1
  %12 = icmp eq i32 %11, 0
  br i1 %.not, label %14, label %13

13:                                               ; preds = %8
  br i1 %12, label %15, label %16

14:                                               ; preds = %8
  br i1 %12, label %16, label %15

15:                                               ; preds = %14, %13
  store i32 %1, ptr %5, align 8, !tbaa !45
  br label %16

16:                                               ; preds = %14, %13, %2, %4, %15
  %.0 = phi i32 [ 0, %15 ], [ -501, %4 ], [ -501, %2 ], [ -501, %13 ], [ -501, %14 ]
  ret i32 %.0
}